; ModuleID = '44/821.c'
source_filename = "44/821.c"
target datalayout = "e-m:e-p270:32:32-p271:32:32-p272:64:64-i64:64-f80:128-n8:16:32:64-S128"
target triple = "x86_64-pc-linux-gnu"

@.str = private unnamed_addr constant [3 x i8] c"%d\00", align 1
@.str.1 = private unnamed_addr constant [3 x i8] c"0\0A\00", align 1
@.str.2 = private unnamed_addr constant [4 x i8] c"%d\0A\00", align 1
@.str.3 = private unnamed_addr constant [5 x i8] c"-%d\0A\00", align 1

; Function Attrs: noinline nounwind uwtable
define dso_local i32 @FAN(i32 %0) #0 {
  %2 = alloca i32, align 4
  %3 = alloca [100000 x i32], align 16
  %4 = alloca i32, align 4
  %5 = alloca i32, align 4
  %6 = alloca i32, align 4
  %7 = alloca i32, align 4
  %8 = alloca i32, align 4
  store i32 %0, i32* %2, align 4
  store i32 0, i32* %8, align 4
  %9 = load i32, i32* %2, align 4
  %10 = sitofp i32 %9 to double
  %11 = call double @log10(double %10) #3
  %12 = fadd double %11, 1.000000e+00
  %13 = fptosi double %12 to i32
  store i32 %13, i32* %5, align 4
  store i32 1, i32* %4, align 4
  br label %14

14:                                               ; preds = %41, %1
  %15 = load i32, i32* %4, align 4
  %16 = load i32, i32* %5, align 4
  %17 = sub nsw i32 %16, 1
  %18 = icmp sle i32 %15, %17
  br i1 %18, label %19, label %44

19:                                               ; preds = %14
  %20 = load i32, i32* %4, align 4
  %21 = sitofp i32 %20 to double
  %22 = call double @pow(double 1.000000e+01, double %21) #3
  %23 = fptosi double %22 to i32
  store i32 %23, i32* %6, align 4
  %24 = load i32, i32* %4, align 4
  %25 = sub nsw i32 %24, 1
  %26 = sitofp i32 %25 to double
  %27 = call double @pow(double 1.000000e+01, double %26) #3
  %28 = fptosi double %27 to i32
  store i32 %28, i32* %7, align 4
  %29 = load i32, i32* %2, align 4
  %30 = load i32, i32* %2, align 4
  %31 = load i32, i32* %6, align 4
  %32 = sdiv i32 %30, %31
  %33 = load i32, i32* %6, align 4
  %34 = mul nsw i32 %32, %33
  %35 = sub nsw i32 %29, %34
  %36 = load i32, i32* %7, align 4
  %37 = sdiv i32 %35, %36
  %38 = load i32, i32* %4, align 4
  %39 = sext i32 %38 to i64
  %40 = getelementptr inbounds [100000 x i32], [100000 x i32]* %3, i64 0, i64 %39
  store i32 %37, i32* %40, align 4
  br label %41

41:                                               ; preds = %19
  %42 = load i32, i32* %4, align 4
  %43 = add nsw i32 %42, 1
  store i32 %43, i32* %4, align 4
  br label %14

44:                                               ; preds = %14
  %45 = load i32, i32* %2, align 4
  %46 = load i32, i32* %6, align 4
  %47 = sdiv i32 %45, %46
  %48 = load i32, i32* %4, align 4
  %49 = sext i32 %48 to i64
  %50 = getelementptr inbounds [100000 x i32], [100000 x i32]* %3, i64 0, i64 %49
  store i32 %47, i32* %50, align 4
  %51 = load i32, i32* %5, align 4
  store i32 %51, i32* %4, align 4
  br label %52

52:                                               ; preds = %71, %44
  %53 = load i32, i32* %4, align 4
  %54 = icmp sge i32 %53, 1
  br i1 %54, label %55, label %74

55:                                               ; preds = %52
  %56 = load i32, i32* %8, align 4
  %57 = sitofp i32 %56 to double
  %58 = load i32, i32* %4, align 4
  %59 = sext i32 %58 to i64
  %60 = getelementptr inbounds [100000 x i32], [100000 x i32]* %3, i64 0, i64 %59
  %61 = load i32, i32* %60, align 4
  %62 = sitofp i32 %61 to double
  %63 = load i32, i32* %5, align 4
  %64 = load i32, i32* %4, align 4
  %65 = sub nsw i32 %63, %64
  %66 = sitofp i32 %65 to double
  %67 = call double @pow(double 1.000000e+01, double %66) #3
  %68 = fmul double %62, %67
  %69 = fadd double %57, %68
  %70 = fptosi double %69 to i32
  store i32 %70, i32* %8, align 4
  br label %71

71:                                               ; preds = %55
  %72 = load i32, i32* %4, align 4
  %73 = add nsw i32 %72, -1
  store i32 %73, i32* %4, align 4
  br label %52

74:                                               ; preds = %52
  %75 = load i32, i32* %8, align 4
  ret i32 %75
}

; Function Attrs: nounwind
declare dso_local double @log10(double) #1

; Function Attrs: nounwind
declare dso_local double @pow(double, double) #1

; Function Attrs: noinline nounwind uwtable
define dso_local i32 @main() #0 {
  %1 = alloca i32, align 4
  %2 = alloca i32, align 4
  %3 = alloca i32, align 4
  %4 = alloca i32, align 4
  store i32 0, i32* %1, align 4
  store i32 1, i32* %4, align 4
  br label %5

5:                                                ; preds = %29, %0
  %6 = load i32, i32* %4, align 4
  %7 = icmp sle i32 %6, 6
  br i1 %7, label %8, label %32

8:                                                ; preds = %5
  %9 = call i32 (i8*, ...) @__isoc99_scanf(i8* getelementptr inbounds ([3 x i8], [3 x i8]* @.str, i64 0, i64 0), i32* %2)
  %10 = load i32, i32* %2, align 4
  %11 = icmp eq i32 %10, 0
  br i1 %11, label %12, label %14

12:                                               ; preds = %8
  %13 = call i32 (i8*, ...) @printf(i8* getelementptr inbounds ([3 x i8], [3 x i8]* @.str.1, i64 0, i64 0))
  br label %28

14:                                               ; preds = %8
  %15 = load i32, i32* %2, align 4
  %16 = icmp sgt i32 %15, 0
  br i1 %16, label %17, label %21

17:                                               ; preds = %14
  %18 = load i32, i32* %2, align 4
  %19 = call i32 @FAN(i32 %18)
  %20 = call i32 (i8*, ...) @printf(i8* getelementptr inbounds ([4 x i8], [4 x i8]* @.str.2, i64 0, i64 0), i32 %19)
  br label %27

21:                                               ; preds = %14
  %22 = load i32, i32* %2, align 4
  %23 = sub nsw i32 0, %22
  store i32 %23, i32* %3, align 4
  %24 = load i32, i32* %3, align 4
  %25 = call i32 @FAN(i32 %24)
  %26 = call i32 (i8*, ...) @printf(i8* getelementptr inbounds ([5 x i8], [5 x i8]* @.str.3, i64 0, i64 0), i32 %25)
  br label %27

27:                                               ; preds = %21, %17
  br label %28

28:                                               ; preds = %27, %12
  br label %29

29:                                               ; preds = %28
  %30 = load i32, i32* %4, align 4
  %31 = add nsw i32 %30, 1
  store i32 %31, i32* %4, align 4
  br label %5

32:                                               ; preds = %5
  ret i32 0
}

declare dso_local i32 @__isoc99_scanf(i8*, ...) #2

declare dso_local i32 @printf(i8*, ...) #2


!llvm.module.flags = !{!0}
!llvm.ident = !{!1}

!0 = !{i32 1, !"wchar_size", i32 4}
!1 = !{!"clang version 10.0.0-4ubuntu1 "}
